target datalayout = "e-m:e-p270:32:32-p271:32:32-p272:64:64-i64:64-i128:128-f80:128-n8:16:32:64-S128"
target triple = "x86_64-pc-linux-gnu"

%struct.AVFilterLink = type { ptr, ptr, ptr, ptr, i32, i32, i32, i32, %struct.AVRational, i32, i32, i32, %struct.AVChannelLayout, %struct.AVRational, ptr, i32, %struct.AVFilterFormatsConfig, %struct.AVFilterFormatsConfig }
%struct.AVChannelLayout = type { i32, i32, %union.anon.1, ptr }
%union.anon.1 = type { i64 }
%struct.AVRational = type { i32, i32 }
%struct.AVFilterFormatsConfig = type { ptr, ptr, ptr, ptr, ptr }
%struct.AVFilterContext = type { ptr, ptr, ptr, ptr, ptr, i32, ptr, ptr, i32, ptr, ptr, i32, i32, ptr, ptr, ptr, ptr, i32, ptr, i32, i32 }
%struct.FlipContext = type { i32, i32 }
%struct.AVPixFmtDescriptor = type { ptr, i8, i8, i8, i64, [4 x %struct.AVComponentDescriptor], ptr }
%struct.AVComponentDescriptor = type { i32, i32, i32, i32, i32 }

; Function Attrs: nounwind uwtable
define internal i32 @config_input(ptr noundef %0) #0 {
  %2 = alloca ptr, align 8
  %3 = alloca ptr, align 8
  %4 = alloca ptr, align 8
  store ptr %0, ptr %2, align 8, !tbaa !4
  call void @llvm.lifetime.start.p0(i64 8, ptr %3) #5
  %5 = load ptr, ptr %2, align 8, !tbaa !4
  %6 = getelementptr inbounds nuw %struct.AVFilterLink, ptr %5, i32 0, i32 2
  %7 = load ptr, ptr %6, align 8, !tbaa !11
  %8 = getelementptr inbounds nuw %struct.AVFilterContext, ptr %7, i32 0, i32 9
  %9 = load ptr, ptr %8, align 8, !tbaa !22
  store ptr %9, ptr %3, align 8, !tbaa !32
  call void @llvm.lifetime.start.p0(i64 8, ptr %4) #5
  %10 = load ptr, ptr %2, align 8, !tbaa !4
  %11 = getelementptr inbounds nuw %struct.AVFilterLink, ptr %10, i32 0, i32 5
  %12 = load i32, ptr %11, align 4, !tbaa !45
  %13 = call ptr @av_pix_fmt_desc_get(i32 noundef %12)
  store ptr %13, ptr %4, align 8, !tbaa !46
  %14 = load ptr, ptr %4, align 8, !tbaa !46
  %15 = getelementptr inbounds nuw %struct.AVPixFmtDescriptor, ptr %14, i32 0, i32 3
  %16 = load i8, ptr %15, align 2, !tbaa !48
  %17 = zext i8 %16 to i32
  %18 = load ptr, ptr %3, align 8, !tbaa !32
  %19 = getelementptr inbounds nuw %struct.FlipContext, ptr %18, i32 0, i32 0
  store i32 %17, ptr %19, align 4, !tbaa !37
  %20 = load ptr, ptr %4, align 8, !tbaa !46
  %21 = getelementptr inbounds nuw %struct.AVPixFmtDescriptor, ptr %20, i32 0, i32 4
  %22 = load i64, ptr %21, align 8, !tbaa !51
  %23 = and i64 %22, 256
  %24 = icmp ne i64 %23, 0
  %25 = xor i1 %24, true
  %26 = xor i1 %25, true
  %27 = zext i1 %26 to i32
  %28 = load ptr, ptr %3, align 8, !tbaa !32
  %29 = getelementptr inbounds nuw %struct.FlipContext, ptr %28, i32 0, i32 1
  store i32 %27, ptr %29, align 4, !tbaa !42
  call void @llvm.lifetime.end.p0(i64 8, ptr %4) #5
  call void @llvm.lifetime.end.p0(i64 8, ptr %3) #5
  ret i32 0
}