; Function Attrs: nounwind uwtable
define internal noundef i32 @config_input(ptr noundef readonly captures(none) %0) #0 {
  %2 = getelementptr inbounds nuw i8, ptr %0, i64 16
  %3 = load ptr, ptr %2, align 8, !tbaa !4
  %4 = getelementptr inbounds nuw i8, ptr %3, i64 72
  %5 = load ptr, ptr %4, align 8, !tbaa !19
  %6 = getelementptr inbounds nuw i8, ptr %0, i64 36
  %7 = load i32, ptr %6, align 4, !tbaa !39
  %8 = tail call ptr @av_pix_fmt_desc_get(i32 noundef %7) #4
  %9 = getelementptr inbounds nuw i8, ptr %8, i64 10
  %10 = load i8, ptr %9, align 2, !tbaa !48
  %11 = zext i8 %10 to i32
  store i32 %11, ptr %5, align 4, !tbaa !32
  %12 = getelementptr inbounds nuw i8, ptr %8, i64 16
  %13 = load i64, ptr %12, align 8, !tbaa !51
  %14 = trunc i64 %13 to i32
  %15 = lshr i32 %14, 8
  %16 = and i32 %15, 1
  %17 = getelementptr inbounds nuw i8, ptr %5, i64 4
  store i32 %16, ptr %17, align 4, !tbaa !38
  ret i32 0
}